; Function Attrs: null_pointer_is_valid sspstrong uwtable
define internal i32 @dissect_InitiatingMessageValue(ptr noundef %0, ptr noundef %1, ptr noundef %2, ptr noundef %3) #0 {
  %5 = getelementptr inbounds nuw i8, ptr %1, i64 408
  %6 = load ptr, ptr %5, align 8
  %7 = load i32, ptr @proto_s1ap, align 4
  %8 = tail call ptr @p_get_proto_data(ptr noundef %6, ptr noundef %1, i32 noundef %7, i32 noundef 0)
  %.not.i = icmp eq ptr %8, null
  br i1 %.not.i, label %9, label %s1ap_get_private_data.exit

9:                                                ; preds = %4
  %10 = load ptr, ptr %5, align 8
  %11 = tail call noalias dereferenceable_or_null(64) ptr @wmem_alloc0(ptr noundef %10, i64 noundef 64) #9
  %12 = load ptr, ptr %5, align 8
  %13 = load i32, ptr @proto_s1ap, align 4
  tail call void @p_add_proto_data(ptr noundef %12, ptr noundef %1, i32 noundef %13, i32 noundef 0, ptr noundef %11)
  br label %s1ap_get_private_data.exit

s1ap_get_private_data.exit:                       ; preds = %4, %9
  %.0.i = phi ptr [ %8, %4 ], [ %11, %9 ]
  %14 = load ptr, ptr @s1ap_proc_imsg_dissector_table, align 8
  %15 = getelementptr inbounds nuw i8, ptr %.0.i, i64 8
  %16 = load i32, ptr %15, align 8
  %17 = tail call i32 @dissector_try_uint_with_data(ptr noundef %14, i32 noundef %16, ptr noundef %0, ptr noundef %1, ptr noundef %2, i1 noundef zeroext false, ptr noundef %3)
  %.not = icmp eq i32 %17, 0
  br i1 %.not, label %20, label %18

18:                                               ; preds = %s1ap_get_private_data.exit
  %19 = tail call i32 @tvb_captured_length(ptr noundef %0)
  br label %20

20:                                               ; preds = %s1ap_get_private_data.exit, %18
  %21 = phi i32 [ %19, %18 ], [ 0, %s1ap_get_private_data.exit ]
  ret i32 %21
}